target datalayout = "e-m:e-p270:32:32-p271:32:32-p272:64:64-i64:64-i128:128-f80:128-n8:16:32:64-S128"
target triple = "x86_64-pc-linux-gnu"

%struct.eio_obj = type { i32, ptr, ptr, i8 }
%struct.server_io_info = type { ptr, i32, i8, %struct.io_hdr_t, ptr, i32, i8, i32, i32, ptr, ptr, i32, i8 }
%struct.io_hdr_t = type { i32, i16, i16, i32 }
%struct.client_io_t = type { i32, i32, i8, i32, i32, i32, ptr, i8, %union.pthread_cond_t, %union.pthread_mutex_t, i32, ptr, ptr, ptr, %union.pthread_mutex_t, ptr, i32, ptr, ptr, ptr, ptr, ptr, ptr, i32, i32, ptr }
%union.pthread_cond_t = type { %struct.__pthread_cond_s }
%struct.__pthread_cond_s = type { %union.__atomic_wide_counter, %union.__atomic_wide_counter, [2 x i32], [2 x i32], i32, i32, [2 x i32] }
%union.__atomic_wide_counter = type { i64 }
%union.pthread_mutex_t = type { %struct.__pthread_mutex_s }
%struct.__pthread_mutex_s = type { i32, i32, i32, i32, i32, i16, i16, %struct.__pthread_internal_list }
%struct.__pthread_internal_list = type { ptr, ptr }
%struct.io_buf = type { i32, i32, ptr, %struct.io_hdr_t }

@.str.4 = private unnamed_addr constant [29 x i8] c"%s: pthread_mutex_lock(): %m\00", align 1
@.str.11 = private unnamed_addr constant [31 x i8] c"%s: pthread_mutex_unlock(): %m\00", align 1
@.str.47 = private unnamed_addr constant [23 x i8] c"Entering _server_write\00", align 1
@.str.48 = private unnamed_addr constant [36 x i8] c"_server_write: nothing in the queue\00", align 1
@.str.49 = private unnamed_addr constant [46 x i8] c"  dequeue successful, s->out_msg->length = %d\00", align 1
@.str.50 = private unnamed_addr constant [24 x i8] c"  s->out_remaining = %d\00", align 1
@.str.51 = private unnamed_addr constant [30 x i8] c"  got EAGAIN in _server_write\00", align 1
@.str.52 = private unnamed_addr constant [31 x i8] c"_server_write write failed: %m\00", align 1
@.str.53 = private unnamed_addr constant [25 x i8] c"Wrote %d bytes to socket\00", align 1
@__func__._server_write = private unnamed_addr constant [14 x i8] c"_server_write\00", align 1
@.str.54 = private unnamed_addr constant [23 x i8] c"  Could not free msg!!\00", align 1

; Function Attrs: nounwind uwtable
define internal i32 @_server_write(ptr noundef %0, ptr noundef %1) #0 {
  %3 = alloca i32, align 4
  %4 = alloca ptr, align 8
  %5 = alloca ptr, align 8
  %6 = alloca ptr, align 8
  %7 = alloca ptr, align 8
  %8 = alloca i32, align 4
  %9 = alloca i32, align 4
  %10 = alloca i32, align 4
  %11 = alloca i32, align 4
  store ptr %0, ptr %4, align 8
  store ptr %1, ptr %5, align 8
  call void @llvm.lifetime.start.p0(i64 8, ptr %6) #9
  %12 = load ptr, ptr %4, align 8
  %13 = getelementptr inbounds nuw %struct.eio_obj, ptr %12, i32 0, i32 1
  %14 = load ptr, ptr %13, align 8
  store ptr %14, ptr %6, align 8
  call void @llvm.lifetime.start.p0(i64 8, ptr %7) #9
  call void @llvm.lifetime.start.p0(i64 4, ptr %8) #9
  br label %15

15:                                               ; preds = %2
  br label %16

16:                                               ; preds = %15
  %17 = call i32 @get_log_level()
  %18 = icmp sge i32 %17, 8
  br i1 %18, label %19, label %20

19:                                               ; preds = %16
  call void (i32, ptr, ...) @log_var(i32 noundef 8, ptr noundef @.str.47)
  br label %20

20:                                               ; preds = %19, %16
  br label %21

21:                                               ; preds = %20
  br label %22

22:                                               ; preds = %21
  br label %23

23:                                               ; preds = %22
  br label %24

24:                                               ; preds = %23
  %25 = load ptr, ptr %6, align 8
  %26 = getelementptr inbounds nuw %struct.server_io_info, ptr %25, i32 0, i32 10
  %27 = load ptr, ptr %26, align 8
  %28 = icmp eq ptr %27, null
  br i1 %28, label %29, label %74

29:                                               ; preds = %24
  %30 = load ptr, ptr %6, align 8
  %31 = getelementptr inbounds nuw %struct.server_io_info, ptr %30, i32 0, i32 9
  %32 = load ptr, ptr %31, align 8
  %33 = call ptr @list_dequeue(ptr noundef %32)
  %34 = load ptr, ptr %6, align 8
  %35 = getelementptr inbounds nuw %struct.server_io_info, ptr %34, i32 0, i32 10
  store ptr %33, ptr %35, align 8
  %36 = load ptr, ptr %6, align 8
  %37 = getelementptr inbounds nuw %struct.server_io_info, ptr %36, i32 0, i32 10
  %38 = load ptr, ptr %37, align 8
  %39 = icmp eq ptr %38, null
  br i1 %39, label %40, label %51

40:                                               ; preds = %29
  br label %41

41:                                               ; preds = %40
  br label %42

42:                                               ; preds = %41
  %43 = call i32 @get_log_level()
  %44 = icmp sge i32 %43, 7
  br i1 %44, label %45, label %46

45:                                               ; preds = %42
  call void (i32, ptr, ...) @log_var(i32 noundef 7, ptr noundef @.str.48)
  br label %46

46:                                               ; preds = %45, %42
  br label %47

47:                                               ; preds = %46
  br label %48

48:                                               ; preds = %47
  br label %49

49:                                               ; preds = %48
  br label %50

50:                                               ; preds = %49
  store i32 0, ptr %3, align 4
  store i32 1, ptr %9, align 4
  br label %247

51:                                               ; preds = %29
  br label %52

52:                                               ; preds = %51
  br label %53

53:                                               ; preds = %52
  %54 = call i32 @get_log_level()
  %55 = icmp sge i32 %54, 7
  br i1 %55, label %56, label %62

56:                                               ; preds = %53
  %57 = load ptr, ptr %6, align 8
  %58 = getelementptr inbounds nuw %struct.server_io_info, ptr %57, i32 0, i32 10
  %59 = load ptr, ptr %58, align 8
  %60 = getelementptr inbounds nuw %struct.io_buf, ptr %59, i32 0, i32 1
  %61 = load i32, ptr %60, align 4
  call void (i32, ptr, ...) @log_var(i32 noundef 7, ptr noundef @.str.49, i32 noundef %61)
  br label %62

62:                                               ; preds = %56, %53
  br label %63

63:                                               ; preds = %62
  br label %64

64:                                               ; preds = %63
  br label %65

65:                                               ; preds = %64
  br label %66

66:                                               ; preds = %65
  %67 = load ptr, ptr %6, align 8
  %68 = getelementptr inbounds nuw %struct.server_io_info, ptr %67, i32 0, i32 10
  %69 = load ptr, ptr %68, align 8
  %70 = getelementptr inbounds nuw %struct.io_buf, ptr %69, i32 0, i32 1
  %71 = load i32, ptr %70, align 4
  %72 = load ptr, ptr %6, align 8
  %73 = getelementptr inbounds nuw %struct.server_io_info, ptr %72, i32 0, i32 11
  store i32 %71, ptr %73, align 8
  br label %74

74:                                               ; preds = %66, %24
  br label %75

75:                                               ; preds = %74
  br label %76

76:                                               ; preds = %75
  %77 = call i32 @get_log_level()
  %78 = icmp sge i32 %77, 7
  br i1 %78, label %79, label %83

79:                                               ; preds = %76
  %80 = load ptr, ptr %6, align 8
  %81 = getelementptr inbounds nuw %struct.server_io_info, ptr %80, i32 0, i32 11
  %82 = load i32, ptr %81, align 8
  call void (i32, ptr, ...) @log_var(i32 noundef 7, ptr noundef @.str.50, i32 noundef %82)
  br label %83

83:                                               ; preds = %79, %76
  br label %84

84:                                               ; preds = %83
  br label %85

85:                                               ; preds = %84
  br label %86

86:                                               ; preds = %85
  br label %87

87:                                               ; preds = %86
  %88 = load ptr, ptr %6, align 8
  %89 = getelementptr inbounds nuw %struct.server_io_info, ptr %88, i32 0, i32 10
  %90 = load ptr, ptr %89, align 8
  %91 = getelementptr inbounds nuw %struct.io_buf, ptr %90, i32 0, i32 2
  %92 = load ptr, ptr %91, align 8
  %93 = load ptr, ptr %6, align 8
  %94 = getelementptr inbounds nuw %struct.server_io_info, ptr %93, i32 0, i32 10
  %95 = load ptr, ptr %94, align 8
  %96 = getelementptr inbounds nuw %struct.io_buf, ptr %95, i32 0, i32 1
  %97 = load i32, ptr %96, align 4
  %98 = load ptr, ptr %6, align 8
  %99 = getelementptr inbounds nuw %struct.server_io_info, ptr %98, i32 0, i32 11
  %100 = load i32, ptr %99, align 8
  %101 = sub i32 %97, %100
  %102 = zext i32 %101 to i64
  %103 = getelementptr inbounds nuw i8, ptr %92, i64 %102
  store ptr %103, ptr %7, align 8
  br label %104

104:                                              ; preds = %120, %87
  %105 = load ptr, ptr %4, align 8
  %106 = getelementptr inbounds nuw %struct.eio_obj, ptr %105, i32 0, i32 0
  %107 = load i32, ptr %106, align 8
  %108 = load ptr, ptr %7, align 8
  %109 = load ptr, ptr %6, align 8
  %110 = getelementptr inbounds nuw %struct.server_io_info, ptr %109, i32 0, i32 11
  %111 = load i32, ptr %110, align 8
  %112 = sext i32 %111 to i64
  %113 = call i64 @write(i32 noundef %107, ptr noundef %108, i64 noundef %112)
  %114 = trunc i64 %113 to i32
  store i32 %114, ptr %8, align 4
  %115 = icmp slt i32 %114, 0
  br i1 %115, label %116, label %161

116:                                              ; preds = %104
  %117 = call ptr @__errno_location() #10
  %118 = load i32, ptr %117, align 4
  %119 = icmp eq i32 %118, 4
  br i1 %119, label %120, label %121

120:                                              ; preds = %116
  br label %104

121:                                              ; preds = %116
  %122 = call ptr @__errno_location() #10
  %123 = load i32, ptr %122, align 4
  %124 = icmp eq i32 %123, 11
  br i1 %124, label %129, label %125

125:                                              ; preds = %121
  %126 = call ptr @__errno_location() #10
  %127 = load i32, ptr %126, align 4
  %128 = icmp eq i32 %127, 11
  br i1 %128, label %129, label %140

129:                                              ; preds = %125, %121
  br label %130

130:                                              ; preds = %129
  br label %131

131:                                              ; preds = %130
  %132 = call i32 @get_log_level()
  %133 = icmp sge i32 %132, 7
  br i1 %133, label %134, label %135

134:                                              ; preds = %131
  call void (i32, ptr, ...) @log_var(i32 noundef 7, ptr noundef @.str.51)
  br label %135

135:                                              ; preds = %134, %131
  br label %136

136:                                              ; preds = %135
  br label %137

137:                                              ; preds = %136
  br label %138

138:                                              ; preds = %137
  br label %139

139:                                              ; preds = %138
  store i32 0, ptr %3, align 4
  store i32 1, ptr %9, align 4
  br label %247

140:                                              ; preds = %125
  %141 = call i32 (ptr, ...) @error(ptr noundef @.str.52)
  %142 = load ptr, ptr %6, align 8
  %143 = getelementptr inbounds nuw %struct.server_io_info, ptr %142, i32 0, i32 0
  %144 = load ptr, ptr %143, align 8
  %145 = getelementptr inbounds nuw %struct.client_io_t, ptr %144, i32 0, i32 25
  %146 = load ptr, ptr %145, align 8
  %147 = icmp ne ptr %146, null
  br i1 %147, label %148, label %158

148:                                              ; preds = %140
  %149 = load ptr, ptr %6, align 8
  %150 = getelementptr inbounds nuw %struct.server_io_info, ptr %149, i32 0, i32 0
  %151 = load ptr, ptr %150, align 8
  %152 = getelementptr inbounds nuw %struct.client_io_t, ptr %151, i32 0, i32 25
  %153 = load ptr, ptr %152, align 8
  %154 = load ptr, ptr %6, align 8
  %155 = getelementptr inbounds nuw %struct.server_io_info, ptr %154, i32 0, i32 1
  %156 = load i32, ptr %155, align 8
  %157 = call i32 @step_launch_notify_io_failure(ptr noundef %153, i32 noundef %156)
  br label %158

158:                                              ; preds = %148, %140
  %159 = load ptr, ptr %6, align 8
  %160 = getelementptr inbounds nuw %struct.server_io_info, ptr %159, i32 0, i32 12
  store i8 1, ptr %160, align 4
  store i32 -1, ptr %3, align 4
  store i32 1, ptr %9, align 4
  br label %247

161:                                              ; preds = %104
  br label %162

162:                                              ; preds = %161
  br label %163

163:                                              ; preds = %162
  %164 = call i32 @get_log_level()
  %165 = icmp sge i32 %164, 7
  br i1 %165, label %166, label %168

166:                                              ; preds = %163
  %167 = load i32, ptr %8, align 4
  call void (i32, ptr, ...) @log_var(i32 noundef 7, ptr noundef @.str.53, i32 noundef %167)
  br label %168

168:                                              ; preds = %166, %163
  br label %169

169:                                              ; preds = %168
  br label %170

170:                                              ; preds = %169
  br label %171

171:                                              ; preds = %170
  br label %172

172:                                              ; preds = %171
  %173 = load i32, ptr %8, align 4
  %174 = load ptr, ptr %6, align 8
  %175 = getelementptr inbounds nuw %struct.server_io_info, ptr %174, i32 0, i32 11
  %176 = load i32, ptr %175, align 8
  %177 = sub nsw i32 %176, %173
  store i32 %177, ptr %175, align 8
  %178 = load ptr, ptr %6, align 8
  %179 = getelementptr inbounds nuw %struct.server_io_info, ptr %178, i32 0, i32 11
  %180 = load i32, ptr %179, align 8
  %181 = icmp sgt i32 %180, 0
  br i1 %181, label %182, label %183

182:                                              ; preds = %172
  store i32 0, ptr %3, align 4
  store i32 1, ptr %9, align 4
  br label %247

183:                                              ; preds = %172
  %184 = load ptr, ptr %6, align 8
  %185 = getelementptr inbounds nuw %struct.server_io_info, ptr %184, i32 0, i32 10
  %186 = load ptr, ptr %185, align 8
  %187 = getelementptr inbounds nuw %struct.io_buf, ptr %186, i32 0, i32 0
  %188 = load i32, ptr %187, align 8
  %189 = add nsw i32 %188, -1
  store i32 %189, ptr %187, align 8
  %190 = load ptr, ptr %6, align 8
  %191 = getelementptr inbounds nuw %struct.server_io_info, ptr %190, i32 0, i32 10
  %192 = load ptr, ptr %191, align 8
  %193 = getelementptr inbounds nuw %struct.io_buf, ptr %192, i32 0, i32 0
  %194 = load i32, ptr %193, align 8
  %195 = icmp eq i32 %194, 0
  br i1 %195, label %196, label %233

196:                                              ; preds = %183
  br label %197

197:                                              ; preds = %196
  call void @llvm.lifetime.start.p0(i64 4, ptr %10) #9
  %198 = load ptr, ptr %6, align 8
  %199 = getelementptr inbounds nuw %struct.server_io_info, ptr %198, i32 0, i32 0
  %200 = load ptr, ptr %199, align 8
  %201 = getelementptr inbounds nuw %struct.client_io_t, ptr %200, i32 0, i32 14
  %202 = call i32 @pthread_mutex_lock(ptr noundef %201) #9
  store i32 %202, ptr %10, align 4
  %203 = load i32, ptr %10, align 4
  %204 = icmp ne i32 %203, 0
  br i1 %204, label %205, label %208

205:                                              ; preds = %197
  %206 = load i32, ptr %10, align 4
  %207 = call ptr @__errno_location() #10
  store i32 %206, ptr %207, align 4
  call void (ptr, ...) @fatal_abort(ptr noundef @.str.4, ptr noundef @__func__._server_write) #11
  unreachable

208:                                              ; preds = %197
  call void @llvm.lifetime.end.p0(i64 4, ptr %10) #9
  br label %209

209:                                              ; preds = %208
  br label %210

210:                                              ; preds = %209
  %211 = load ptr, ptr %6, align 8
  %212 = getelementptr inbounds nuw %struct.server_io_info, ptr %211, i32 0, i32 0
  %213 = load ptr, ptr %212, align 8
  %214 = getelementptr inbounds nuw %struct.client_io_t, ptr %213, i32 0, i32 21
  %215 = load ptr, ptr %214, align 8
  %216 = load ptr, ptr %6, align 8
  %217 = getelementptr inbounds nuw %struct.server_io_info, ptr %216, i32 0, i32 10
  %218 = load ptr, ptr %217, align 8
  call void @list_enqueue(ptr noundef %215, ptr noundef %218)
  br label %219

219:                                              ; preds = %210
  call void @llvm.lifetime.start.p0(i64 4, ptr %11) #9
  %220 = load ptr, ptr %6, align 8
  %221 = getelementptr inbounds nuw %struct.server_io_info, ptr %220, i32 0, i32 0
  %222 = load ptr, ptr %221, align 8
  %223 = getelementptr inbounds nuw %struct.client_io_t, ptr %222, i32 0, i32 14
  %224 = call i32 @pthread_mutex_unlock(ptr noundef %223) #9
  store i32 %224, ptr %11, align 4
  %225 = load i32, ptr %11, align 4
  %226 = icmp ne i32 %225, 0
  br i1 %226, label %227, label %230

227:                                              ; preds = %219
  %228 = load i32, ptr %11, align 4
  %229 = call ptr @__errno_location() #10
  store i32 %228, ptr %229, align 4
  call void (ptr, ...) @fatal_abort(ptr noundef @.str.11, ptr noundef @__func__._server_write) #11
  unreachable

230:                                              ; preds = %219
  call void @llvm.lifetime.end.p0(i64 4, ptr %11) #9
  br label %231

231:                                              ; preds = %230
  br label %232

232:                                              ; preds = %231
  br label %244

233:                                              ; preds = %183
  br label %234

234:                                              ; preds = %233
  br label %235

235:                                              ; preds = %234
  %236 = call i32 @get_log_level()
  %237 = icmp sge i32 %236, 7
  br i1 %237, label %238, label %239

238:                                              ; preds = %235
  call void (i32, ptr, ...) @log_var(i32 noundef 7, ptr noundef @.str.54)
  br label %239

239:                                              ; preds = %238, %235
  br label %240

240:                                              ; preds = %239
  br label %241

241:                                              ; preds = %240
  br label %242

242:                                              ; preds = %241
  br label %243

243:                                              ; preds = %242
  br label %244

244:                                              ; preds = %243, %232
  %245 = load ptr, ptr %6, align 8
  %246 = getelementptr inbounds nuw %struct.server_io_info, ptr %245, i32 0, i32 10
  store ptr null, ptr %246, align 8
  store i32 0, ptr %3, align 4
  store i32 1, ptr %9, align 4
  br label %247

247:                                              ; preds = %244, %182, %158, %139, %50
  call void @llvm.lifetime.end.p0(i64 4, ptr %8) #9
  call void @llvm.lifetime.end.p0(i64 8, ptr %7) #9
  call void @llvm.lifetime.end.p0(i64 8, ptr %6) #9
  %248 = load i32, ptr %3, align 4
  ret i32 %248
}