; Function Attrs: nounwind uwtable
define internal range(i32 -1, 1) i32 @_server_write(ptr noundef readonly captures(none) %0, ptr readnone captures(none) %1) #0 {
  %3 = getelementptr inbounds nuw i8, ptr %0, i64 8
  %4 = load ptr, ptr %3, align 8
  %5 = tail call i32 @get_log_level() #10
  %6 = icmp sgt i32 %5, 7
  br i1 %6, label %7, label %8

7:                                                ; preds = %2
  tail call void (i32, ptr, ...) @log_var(i32 noundef 8, ptr noundef nonnull @.str.47) #10
  br label %8

8:                                                ; preds = %7, %2
  %9 = getelementptr inbounds nuw i8, ptr %4, i64 64
  %10 = load ptr, ptr %9, align 8
  %11 = icmp eq ptr %10, null
  br i1 %11, label %12, label %31

12:                                               ; preds = %8
  %13 = getelementptr inbounds nuw i8, ptr %4, i64 56
  %14 = load ptr, ptr %13, align 8
  %15 = tail call ptr @list_dequeue(ptr noundef %14) #10
  store ptr %15, ptr %9, align 8
  %16 = icmp eq ptr %15, null
  %17 = tail call i32 @get_log_level() #10
  %18 = icmp sgt i32 %17, 6
  br i1 %16, label %19, label %21

19:                                               ; preds = %12
  br i1 %18, label %20, label %109

20:                                               ; preds = %19
  tail call void (i32, ptr, ...) @log_var(i32 noundef 7, ptr noundef nonnull @.str.48) #10
  br label %109

21:                                               ; preds = %12
  br i1 %18, label %22, label %26

22:                                               ; preds = %21
  %23 = load ptr, ptr %9, align 8
  %24 = getelementptr inbounds nuw i8, ptr %23, i64 4
  %25 = load i32, ptr %24, align 4
  tail call void (i32, ptr, ...) @log_var(i32 noundef 7, ptr noundef nonnull @.str.49, i32 noundef %25) #10
  br label %26

26:                                               ; preds = %22, %21
  %27 = load ptr, ptr %9, align 8
  %28 = getelementptr inbounds nuw i8, ptr %27, i64 4
  %29 = load i32, ptr %28, align 4
  %30 = getelementptr inbounds nuw i8, ptr %4, i64 72
  store i32 %29, ptr %30, align 8
  br label %31

31:                                               ; preds = %26, %8
  %32 = tail call i32 @get_log_level() #10
  %33 = icmp sgt i32 %32, 6
  br i1 %33, label %34, label %37

34:                                               ; preds = %31
  %35 = getelementptr inbounds nuw i8, ptr %4, i64 72
  %36 = load i32, ptr %35, align 8
  tail call void (i32, ptr, ...) @log_var(i32 noundef 7, ptr noundef nonnull @.str.50, i32 noundef %36) #10
  br label %37

37:                                               ; preds = %34, %31
  %38 = load ptr, ptr %9, align 8
  %39 = getelementptr inbounds nuw i8, ptr %38, i64 8
  %40 = load ptr, ptr %39, align 8
  %41 = getelementptr inbounds nuw i8, ptr %38, i64 4
  %42 = load i32, ptr %41, align 4
  %43 = getelementptr inbounds nuw i8, ptr %4, i64 72
  %44 = load i32, ptr %43, align 8
  %45 = sub i32 %42, %44
  %46 = zext i32 %45 to i64
  %47 = getelementptr inbounds nuw i8, ptr %40, i64 %46
  br label %48

48:                                               ; preds = %55, %37
  %49 = load i32, ptr %0, align 8
  %50 = load i32, ptr %43, align 8
  %51 = sext i32 %50 to i64
  %52 = tail call i64 @write(i32 noundef %49, ptr noundef %47, i64 noundef %51) #10
  %53 = trunc i64 %52 to i32
  %54 = icmp slt i32 %53, 0
  br i1 %54, label %55, label %73

55:                                               ; preds = %48
  %56 = tail call ptr @__errno_location() #11
  %57 = load i32, ptr %56, align 4
  switch i32 %57, label %62 [
    i32 4, label %48
    i32 11, label %58
  ]

58:                                               ; preds = %55
  %59 = tail call i32 @get_log_level() #10
  %60 = icmp sgt i32 %59, 6
  br i1 %60, label %61, label %109

61:                                               ; preds = %58
  tail call void (i32, ptr, ...) @log_var(i32 noundef 7, ptr noundef nonnull @.str.51) #10
  br label %109

62:                                               ; preds = %55
  %63 = tail call i32 (ptr, ...) @error(ptr noundef nonnull @.str.52) #10
  %64 = load ptr, ptr %4, align 8
  %65 = getelementptr inbounds nuw i8, ptr %64, i64 272
  %66 = load ptr, ptr %65, align 8
  %.not40 = icmp eq ptr %66, null
  br i1 %.not40, label %71, label %67

67:                                               ; preds = %62
  %68 = getelementptr inbounds nuw i8, ptr %4, i64 8
  %69 = load i32, ptr %68, align 8
  %70 = tail call i32 @step_launch_notify_io_failure(ptr noundef nonnull %66, i32 noundef %69) #10
  br label %71

71:                                               ; preds = %67, %62
  %72 = getelementptr inbounds nuw i8, ptr %4, i64 76
  store i8 1, ptr %72, align 4
  br label %109

73:                                               ; preds = %48
  %74 = tail call i32 @get_log_level() #10
  %75 = icmp sgt i32 %74, 6
  br i1 %75, label %76, label %77

76:                                               ; preds = %73
  tail call void (i32, ptr, ...) @log_var(i32 noundef 7, ptr noundef nonnull @.str.53, i32 noundef %53) #10
  br label %77

77:                                               ; preds = %76, %73
  %78 = load i32, ptr %43, align 8
  %79 = sub nsw i32 %78, %53
  store i32 %79, ptr %43, align 8
  %80 = icmp sgt i32 %79, 0
  br i1 %80, label %109, label %81

81:                                               ; preds = %77
  %82 = load ptr, ptr %9, align 8
  %83 = load i32, ptr %82, align 8
  %84 = add nsw i32 %83, -1
  store i32 %84, ptr %82, align 8
  %85 = load ptr, ptr %9, align 8
  %86 = load i32, ptr %85, align 8
  %87 = icmp eq i32 %86, 0
  br i1 %87, label %88, label %104

88:                                               ; preds = %81
  %89 = load ptr, ptr %4, align 8
  %90 = getelementptr inbounds nuw i8, ptr %89, i64 160
  %91 = tail call i32 @pthread_mutex_lock(ptr noundef nonnull %90) #10
  %.not = icmp eq i32 %91, 0
  br i1 %.not, label %94, label %92

92:                                               ; preds = %88
  %93 = tail call ptr @__errno_location() #11
  store i32 %91, ptr %93, align 4
  tail call void (ptr, ...) @fatal_abort(ptr noundef nonnull @.str.4, ptr noundef nonnull @__func__._server_write) #12
  unreachable

94:                                               ; preds = %88
  %95 = load ptr, ptr %4, align 8
  %96 = getelementptr inbounds nuw i8, ptr %95, i64 248
  %97 = load ptr, ptr %96, align 8
  %98 = load ptr, ptr %9, align 8
  tail call void @list_enqueue(ptr noundef %97, ptr noundef %98) #10
  %99 = load ptr, ptr %4, align 8
  %100 = getelementptr inbounds nuw i8, ptr %99, i64 160
  %101 = tail call i32 @pthread_mutex_unlock(ptr noundef nonnull %100) #10
  %.not39 = icmp eq i32 %101, 0
  br i1 %.not39, label %108, label %102

102:                                              ; preds = %94
  %103 = tail call ptr @__errno_location() #11
  store i32 %101, ptr %103, align 4
  tail call void (ptr, ...) @fatal_abort(ptr noundef nonnull @.str.11, ptr noundef nonnull @__func__._server_write) #12
  unreachable

104:                                              ; preds = %81
  %105 = tail call i32 @get_log_level() #10
  %106 = icmp sgt i32 %105, 6
  br i1 %106, label %107, label %108

107:                                              ; preds = %104
  tail call void (i32, ptr, ...) @log_var(i32 noundef 7, ptr noundef nonnull @.str.54) #10
  br label %108

108:                                              ; preds = %94, %104, %107
  store ptr null, ptr %9, align 8
  br label %109

109:                                              ; preds = %77, %58, %61, %19, %20, %108, %71
  %.0 = phi i32 [ -1, %71 ], [ 0, %108 ], [ 0, %20 ], [ 0, %19 ], [ 0, %61 ], [ 0, %58 ], [ 0, %77 ]
  ret i32 %.0
}